target datalayout = "e-m:e-p270:32:32-p271:32:32-p272:64:64-i64:64-i128:128-f80:128-n8:16:32:64-S128"
target triple = "x86_64-unknown-linux-gnu"

%"class.absl::debian2::string_view" = type { ptr, i64 }
%"class.std::__cxx11::basic_string" = type { %"struct.std::__cxx11::basic_string<char>::_Alloc_hider", i64, %union.anon.4 }
%"struct.std::__cxx11::basic_string<char>::_Alloc_hider" = type { ptr }
%union.anon.4 = type { i64, [8 x i8] }
%"class.re2::RegexpStatus" = type { i32, %"class.absl::debian2::string_view", ptr }

; Function Attrs: mustprogress nounwind uwtable
define linkonce_odr void @_ZN3re212RegexpStatus13set_error_argEN4absl7debian211string_viewE(ptr noundef nonnull align 8 dereferenceable(32) %this, ptr %error_arg.coerce0, i64 %error_arg.coerce1) #3 comdat align 2 {
entry:
  %error_arg = alloca %"class.absl::debian2::string_view", align 8
  %this.addr = alloca ptr, align 8
  %0 = getelementptr inbounds { ptr, i64 }, ptr %error_arg, i32 0, i32 0
  store ptr %error_arg.coerce0, ptr %0, align 8
  %1 = getelementptr inbounds { ptr, i64 }, ptr %error_arg, i32 0, i32 1
  store i64 %error_arg.coerce1, ptr %1, align 8
  store ptr %this, ptr %this.addr, align 8
  %this1 = load ptr, ptr %this.addr, align 8
  %error_arg_ = getelementptr inbounds %"class.re2::RegexpStatus", ptr %this1, i32 0, i32 1
  call void @llvm.memcpy.p0.p0.i64(ptr align 8 %error_arg_, ptr align 8 %error_arg, i64 16, i1 false)
  ret void
}

; Function Attrs: mustprogress nounwind uwtable
define linkonce_odr void @_ZN3re212RegexpStatus8set_codeENS_16RegexpStatusCodeE(ptr noundef nonnull align 8 dereferenceable(32) %this, i32 noundef %code) #3 comdat align 2 {
entry:
  %this.addr = alloca ptr, align 8
  %code.addr = alloca i32, align 4
  store ptr %this, ptr %this.addr, align 8
  store i32 %code, ptr %code.addr, align 4
  %this1 = load ptr, ptr %this.addr, align 8
  %0 = load i32, ptr %code.addr, align 4
  %code_ = getelementptr inbounds %"class.re2::RegexpStatus", ptr %this1, i32 0, i32 0
  store i32 %0, ptr %code_, align 8
  ret void
}

; Function Attrs: mustprogress uwtable
define noundef zeroext i1 @_ZN3re26Regexp14SimplifyRegexpEN4absl7debian211string_viewENS0_10ParseFlagsEPNSt7__cxx1112basic_stringIcSt11char_traitsIcESaIcEEEPNS_12RegexpStatusE(ptr %src.coerce0, i64 %src.coerce1, i32 noundef %flags, ptr noundef %dst, ptr noundef %status) #0 align 2 {
entry:
  %retval = alloca i1, align 1
  %src = alloca %"class.absl::debian2::string_view", align 8
  %flags.addr = alloca i32, align 4
  %dst.addr = alloca ptr, align 8
  %status.addr = alloca ptr, align 8
  %re = alloca ptr, align 8
  %agg.tmp = alloca %"class.absl::debian2::string_view", align 8
  %sre = alloca ptr, align 8
  %agg.tmp5 = alloca %"class.absl::debian2::string_view", align 8
  %ref.tmp = alloca %"class.std::__cxx11::basic_string", align 8
  %0 = getelementptr inbounds { ptr, i64 }, ptr %src, i32 0, i32 0
  store ptr %src.coerce0, ptr %0, align 8
  %1 = getelementptr inbounds { ptr, i64 }, ptr %src, i32 0, i32 1
  store i64 %src.coerce1, ptr %1, align 8
  store i32 %flags, ptr %flags.addr, align 4
  store ptr %dst, ptr %dst.addr, align 8
  store ptr %status, ptr %status.addr, align 8
  call void @llvm.memcpy.p0.p0.i64(ptr align 8 %agg.tmp, ptr align 8 %src, i64 16, i1 false)
  %2 = load i32, ptr %flags.addr, align 4
  %3 = load ptr, ptr %status.addr, align 8
  %4 = getelementptr inbounds { ptr, i64 }, ptr %agg.tmp, i32 0, i32 0
  %5 = load ptr, ptr %4, align 8
  %6 = getelementptr inbounds { ptr, i64 }, ptr %agg.tmp, i32 0, i32 1
  %7 = load i64, ptr %6, align 8
  %call = call noundef ptr @_ZN3re26Regexp5ParseEN4absl7debian211string_viewENS0_10ParseFlagsEPNS_12RegexpStatusE(ptr %5, i64 %7, i32 noundef %2, ptr noundef %3)
  store ptr %call, ptr %re, align 8
  %8 = load ptr, ptr %re, align 8
  %cmp = icmp eq ptr %8, null
  br i1 %cmp, label %if.then, label %if.end

if.then:                                          ; preds = %entry
  store i1 false, ptr %retval, align 1
  br label %return

if.end:                                           ; preds = %entry
  %9 = load ptr, ptr %re, align 8
  %call1 = call noundef ptr @_ZN3re26Regexp8SimplifyEv(ptr noundef nonnull align 8 dereferenceable(40) %9)
  store ptr %call1, ptr %sre, align 8
  %10 = load ptr, ptr %re, align 8
  call void @_ZN3re26Regexp6DecrefEv(ptr noundef nonnull align 8 dereferenceable(40) %10)
  %11 = load ptr, ptr %sre, align 8
  %cmp2 = icmp eq ptr %11, null
  br i1 %cmp2, label %if.then3, label %if.end7

if.then3:                                         ; preds = %if.end
  %12 = load ptr, ptr %status.addr, align 8
  %tobool = icmp ne ptr %12, null
  br i1 %tobool, label %if.then4, label %if.end6

if.then4:                                         ; preds = %if.then3
  %13 = load ptr, ptr %status.addr, align 8
  call void @_ZN3re212RegexpStatus8set_codeENS_16RegexpStatusCodeE(ptr noundef nonnull align 8 dereferenceable(32) %13, i32 noundef 1)
  %14 = load ptr, ptr %status.addr, align 8
  call void @llvm.memcpy.p0.p0.i64(ptr align 8 %agg.tmp5, ptr align 8 %src, i64 16, i1 false)
  %15 = getelementptr inbounds { ptr, i64 }, ptr %agg.tmp5, i32 0, i32 0
  %16 = load ptr, ptr %15, align 8
  %17 = getelementptr inbounds { ptr, i64 }, ptr %agg.tmp5, i32 0, i32 1
  %18 = load i64, ptr %17, align 8
  call void @_ZN3re212RegexpStatus13set_error_argEN4absl7debian211string_viewE(ptr noundef nonnull align 8 dereferenceable(32) %14, ptr %16, i64 %18)
  br label %if.end6

if.end6:                                          ; preds = %if.then4, %if.then3
  store i1 false, ptr %retval, align 1
  br label %return

if.end7:                                          ; preds = %if.end
  %19 = load ptr, ptr %sre, align 8
  call void @_ZN3re26Regexp8ToStringB5cxx11Ev(ptr sret(%"class.std::__cxx11::basic_string") align 8 %ref.tmp, ptr noundef nonnull align 8 dereferenceable(40) %19)
  %20 = load ptr, ptr %dst.addr, align 8
  %call8 = call noundef nonnull align 8 dereferenceable(32) ptr @_ZNSt7__cxx1112basic_stringIcSt11char_traitsIcESaIcEEaSEOS4_(ptr noundef nonnull align 8 dereferenceable(32) %20, ptr noundef nonnull align 8 dereferenceable(32) %ref.tmp) #12
  call void @_ZNSt7__cxx1112basic_stringIcSt11char_traitsIcESaIcEED1Ev(ptr noundef nonnull align 8 dereferenceable(32) %ref.tmp) #12
  %21 = load ptr, ptr %sre, align 8
  call void @_ZN3re26Regexp6DecrefEv(ptr noundef nonnull align 8 dereferenceable(40) %21)
  store i1 true, ptr %retval, align 1
  br label %return

return:                                           ; preds = %if.end7, %if.end6, %if.then
  %22 = load i1, ptr %retval, align 1
  ret i1 %22
}