; Function Attrs: mustprogress uwtable
define noundef zeroext i1 @_ZN3re26Regexp14SimplifyRegexpEN4absl7debian211string_viewENS0_10ParseFlagsEPNSt7__cxx1112basic_stringIcSt11char_traitsIcESaIcEEEPNS_12RegexpStatusE(ptr %src.coerce0, i64 %src.coerce1, i32 noundef %flags, ptr noundef %dst, ptr noundef %status) local_unnamed_addr #0 align 2 {
entry:
  %ref.tmp = alloca %"class.std::__cxx11::basic_string", align 8
  %call = tail call noundef ptr @_ZN3re26Regexp5ParseEN4absl7debian211string_viewENS0_10ParseFlagsEPNS_12RegexpStatusE(ptr %src.coerce0, i64 %src.coerce1, i32 noundef %flags, ptr noundef %status)
  %cmp = icmp eq ptr %call, null
  br i1 %cmp, label %return, label %if.end

if.end:                                           ; preds = %entry
  %call1 = tail call noundef ptr @_ZN3re26Regexp8SimplifyEv(ptr noundef nonnull align 8 dereferenceable(40) %call)
  tail call void @_ZN3re26Regexp6DecrefEv(ptr noundef nonnull align 8 dereferenceable(40) %call)
  %cmp2 = icmp eq ptr %call1, null
  br i1 %cmp2, label %if.then3, label %if.end7

if.then3:                                         ; preds = %if.end
  %tobool.not = icmp eq ptr %status, null
  br i1 %tobool.not, label %return, label %if.then4

if.then4:                                         ; preds = %if.then3
  store i32 1, ptr %status, align 8
  %error_arg_.i = getelementptr inbounds i8, ptr %status, i64 8
  store ptr %src.coerce0, ptr %error_arg_.i, align 8
  %error_arg.sroa.2.0.error_arg_.sroa_idx.i = getelementptr inbounds i8, ptr %status, i64 16
  store i64 %src.coerce1, ptr %error_arg.sroa.2.0.error_arg_.sroa_idx.i, align 8
  br label %return

if.end7:                                          ; preds = %if.end
  call void @_ZN3re26Regexp8ToStringB5cxx11Ev(ptr nonnull sret(%"class.std::__cxx11::basic_string") align 8 %ref.tmp, ptr noundef nonnull align 8 dereferenceable(40) %call1)
  %call8 = call noundef nonnull align 8 dereferenceable(32) ptr @_ZNSt7__cxx1112basic_stringIcSt11char_traitsIcESaIcEEaSEOS4_(ptr noundef nonnull align 8 dereferenceable(32) %dst, ptr noundef nonnull align 8 dereferenceable(32) %ref.tmp) #14
  call void @_ZNSt7__cxx1112basic_stringIcSt11char_traitsIcESaIcEED1Ev(ptr noundef nonnull align 8 dereferenceable(32) %ref.tmp) #14
  call void @_ZN3re26Regexp6DecrefEv(ptr noundef nonnull align 8 dereferenceable(40) %call1)
  br label %return

return:                                           ; preds = %if.then3, %if.then4, %entry, %if.end7
  %retval.0 = phi i1 [ true, %if.end7 ], [ false, %entry ], [ false, %if.then4 ], [ false, %if.then3 ]
  ret i1 %retval.0
}